target datalayout = "e-m:e-p270:32:32-p271:32:32-p272:64:64-i64:64-i128:128-f80:128-n8:16:32:64-S128"
target triple = "x86_64-pc-linux-gnu"

%struct.rb_data_type_struct = type { ptr, %struct.anon, ptr, ptr, i64 }
%struct.anon = type { ptr, ptr, ptr, ptr, [1 x ptr] }
%struct.RBasic = type { i64, i64 }
%struct.RString = type { %struct.RBasic, i64, %union.anon }
%union.anon = type { %struct.anon.0 }
%struct.anon.0 = type { ptr, %union.anon.1 }
%union.anon.1 = type { i64 }
%struct.anon.2 = type { [1 x i8] }

@eOCSPError = internal global i64 0, align 8
@rb_eRuntimeError = external global i64, align 8
@ossl_ocsp_certid_type = internal constant %struct.rb_data_type_struct { ptr @.str.80, %struct.anon { ptr null, ptr @ossl_ocsp_certid_free, ptr null, ptr null, [1 x ptr] zeroinitializer }, ptr null, ptr null, i64 33 }, align 8
@.str.77 = private unnamed_addr constant [28 x i8] c"Cert ID wasn't initialized!\00", align 1

; Function Attrs: inlinehint nounwind sspstrong willreturn memory(read) uwtable
define internal i64 @RB_FL_TEST_RAW(i64 noundef %0, i64 noundef %1) #5 {
  %3 = alloca i64, align 8
  %4 = alloca i64, align 8
  store i64 %0, ptr %3, align 8, !tbaa !6
  store i64 %1, ptr %4, align 8, !tbaa !6
  %5 = load i64, ptr %3, align 8, !tbaa !6
  %6 = inttoptr i64 %5 to ptr
  %7 = getelementptr inbounds nuw %struct.RBasic, ptr %6, i32 0, i32 0
  %8 = load i64, ptr %7, align 8, !tbaa !63
  %9 = load i64, ptr %4, align 8, !tbaa !6
  %10 = and i64 %8, %9
  ret i64 %10
}

; Function Attrs: inlinehint nounwind sspstrong willreturn memory(read) uwtable
define internal i64 @RSTRING_LEN(i64 noundef %0) #5 {
  %2 = alloca i64, align 8
  store i64 %0, ptr %2, align 8, !tbaa !6
  %3 = load i64, ptr %2, align 8, !tbaa !6
  %4 = inttoptr i64 %3 to ptr
  %5 = getelementptr inbounds nuw %struct.RString, ptr %4, i32 0, i32 1
  %6 = load i64, ptr %5, align 8, !tbaa !74
  ret i64 %6
}

; Function Attrs: inlinehint nounwind sspstrong willreturn memory(read) uwtable
define internal zeroext i1 @RB_FL_ANY_RAW(i64 noundef %0, i64 noundef %1) #5 {
  %3 = alloca i64, align 8
  %4 = alloca i64, align 8
  store i64 %0, ptr %3, align 8, !tbaa !6
  store i64 %1, ptr %4, align 8, !tbaa !6
  %5 = load i64, ptr %3, align 8, !tbaa !6
  %6 = load i64, ptr %4, align 8, !tbaa !6
  %7 = call i64 @RB_FL_TEST_RAW(i64 noundef %5, i64 noundef %6) #18
  %8 = icmp ne i64 %7, 0
  ret i1 %8
}

; Function Attrs: inlinehint nounwind sspstrong willreturn memory(read, argmem: readwrite) uwtable
define internal void @rbimpl_rstring_getmem(ptr dead_on_unwind noalias writable sret(%struct.RString) align 8 %0, i64 noundef %1) #12 {
  %3 = alloca i64, align 8
  store i64 %1, ptr %3, align 8, !tbaa !6
  %4 = load i64, ptr %3, align 8, !tbaa !6
  %5 = call zeroext i1 @RB_FL_ANY_RAW(i64 noundef %4, i64 noundef 8192) #18
  br i1 %5, label %6, label %9

6:                                                ; preds = %2
  %7 = load i64, ptr %3, align 8, !tbaa !6
  %8 = inttoptr i64 %7 to ptr
  call void @llvm.memcpy.p0.p0.i64(ptr align 8 %0, ptr align 8 %8, i64 40, i1 false), !tbaa.struct !76
  br label %20

9:                                                ; preds = %2
  %10 = load i64, ptr %3, align 8, !tbaa !6
  %11 = call i64 @RSTRING_LEN(i64 noundef %10) #18
  %12 = getelementptr inbounds nuw %struct.RString, ptr %0, i32 0, i32 1
  store i64 %11, ptr %12, align 8, !tbaa !74
  %13 = load i64, ptr %3, align 8, !tbaa !6
  %14 = inttoptr i64 %13 to ptr
  %15 = getelementptr inbounds nuw %struct.RString, ptr %14, i32 0, i32 2
  %16 = getelementptr inbounds nuw %struct.anon.2, ptr %15, i32 0, i32 0
  %17 = getelementptr inbounds [1 x i8], ptr %16, i64 0, i64 0
  %18 = getelementptr inbounds nuw %struct.RString, ptr %0, i32 0, i32 2
  %19 = getelementptr inbounds nuw %struct.anon.0, ptr %18, i32 0, i32 0
  store ptr %17, ptr %19, align 8, !tbaa !73
  br label %20

20:                                               ; preds = %9, %6
  ret void
}

; Function Attrs: inlinehint nounwind sspstrong uwtable
define internal ptr @RSTRING_PTR(i64 noundef %0) #2 {
  %2 = alloca i64, align 8
  %3 = alloca ptr, align 8
  %4 = alloca %struct.RString, align 8
  store i64 %0, ptr %2, align 8, !tbaa !6
  call void @llvm.lifetime.start.p0(i64 8, ptr %3) #15
  %5 = load i64, ptr %2, align 8, !tbaa !6
  call void @rbimpl_rstring_getmem(ptr dead_on_unwind writable sret(%struct.RString) align 8 %4, i64 noundef %5) #19
  %6 = getelementptr inbounds nuw %struct.RString, ptr %4, i32 0, i32 2
  %7 = getelementptr inbounds nuw %struct.anon.0, ptr %6, i32 0, i32 0
  %8 = load ptr, ptr %7, align 8, !tbaa !73
  store ptr %8, ptr %3, align 8, !tbaa !21
  %9 = load ptr, ptr %3, align 8, !tbaa !21
  call void @llvm.lifetime.end.p0(i64 8, ptr %3) #15
  ret ptr %9
}

; Function Attrs: nounwind sspstrong uwtable
define internal i64 @ossl_ocspcid_to_der(i64 noundef %0) #0 {
  %2 = alloca i64, align 8
  %3 = alloca ptr, align 8
  %4 = alloca i64, align 8
  %5 = alloca i64, align 8
  %6 = alloca ptr, align 8
  %7 = alloca i64, align 8
  store i64 %0, ptr %2, align 8, !tbaa !6
  call void @llvm.lifetime.start.p0(i64 8, ptr %3) #15
  call void @llvm.lifetime.start.p0(i64 8, ptr %4) #15
  call void @llvm.lifetime.start.p0(i64 8, ptr %5) #15
  call void @llvm.lifetime.start.p0(i64 8, ptr %6) #15
  br label %8

8:                                                ; preds = %1
  %9 = load i64, ptr %2, align 8, !tbaa !6
  %10 = call ptr @rb_check_typeddata(i64 noundef %9, ptr noundef @ossl_ocsp_certid_type)
  store ptr %10, ptr %3, align 8, !tbaa !25
  %11 = load ptr, ptr %3, align 8, !tbaa !25
  %12 = icmp ne ptr %11, null
  br i1 %12, label %15, label %13

13:                                               ; preds = %8
  %14 = load i64, ptr @rb_eRuntimeError, align 8, !tbaa !6
  call void (i64, ptr, ...) @ossl_raise(i64 noundef %14, ptr noundef @.str.77) #16
  unreachable

15:                                               ; preds = %8
  br label %16

16:                                               ; preds = %15
  br label %17

17:                                               ; preds = %16
  %18 = load ptr, ptr %3, align 8, !tbaa !25
  %19 = call i32 @i2d_OCSP_CERTID(ptr noundef %18, ptr noundef null)
  %20 = sext i32 %19 to i64
  store i64 %20, ptr %5, align 8, !tbaa !6
  %21 = icmp sle i64 %20, 0
  br i1 %21, label %22, label %24

22:                                               ; preds = %17
  %23 = load i64, ptr @eOCSPError, align 8, !tbaa !6
  call void (i64, ptr, ...) @ossl_raise(i64 noundef %23, ptr noundef null) #16
  unreachable

24:                                               ; preds = %17
  %25 = load i64, ptr %5, align 8, !tbaa !6
  %26 = call i1 @llvm.is.constant.i64(i64 %25)
  %27 = select i1 %26, ptr @rb_str_new_static, ptr @rb_str_new
  %28 = load i64, ptr %5, align 8, !tbaa !6
  %29 = call i64 %27(ptr noundef null, i64 noundef %28)
  store i64 %29, ptr %4, align 8, !tbaa !6
  %30 = load i64, ptr %4, align 8, !tbaa !6
  %31 = call ptr @RSTRING_PTR(i64 noundef %30)
  store ptr %31, ptr %6, align 8, !tbaa !21
  %32 = load ptr, ptr %3, align 8, !tbaa !25
  %33 = call i32 @i2d_OCSP_CERTID(ptr noundef %32, ptr noundef %6)
  %34 = icmp sle i32 %33, 0
  br i1 %34, label %35, label %37

35:                                               ; preds = %24
  %36 = load i64, ptr @eOCSPError, align 8, !tbaa !6
  call void (i64, ptr, ...) @ossl_raise(i64 noundef %36, ptr noundef null) #16
  unreachable

37:                                               ; preds = %24
  br label %38

38:                                               ; preds = %37
  call void @llvm.lifetime.start.p0(i64 8, ptr %7) #15
  %39 = load ptr, ptr %6, align 8, !tbaa !21
  %40 = load i64, ptr %4, align 8, !tbaa !6
  %41 = call ptr @RSTRING_PTR(i64 noundef %40)
  %42 = ptrtoint ptr %39 to i64
  %43 = ptrtoint ptr %41 to i64
  %44 = sub i64 %42, %43
  store i64 %44, ptr %7, align 8, !tbaa !6
  %45 = load i64, ptr %4, align 8, !tbaa !6
  %46 = load i64, ptr %7, align 8, !tbaa !6
  call void @rb_str_set_len(i64 noundef %45, i64 noundef %46)
  call void @llvm.lifetime.end.p0(i64 8, ptr %7) #15
  br label %47

47:                                               ; preds = %38
  br label %48

48:                                               ; preds = %47
  %49 = load i64, ptr %4, align 8, !tbaa !6
  call void @llvm.lifetime.end.p0(i64 8, ptr %6) #15
  call void @llvm.lifetime.end.p0(i64 8, ptr %5) #15
  call void @llvm.lifetime.end.p0(i64 8, ptr %4) #15
  call void @llvm.lifetime.end.p0(i64 8, ptr %3) #15
  ret i64 %49
}